target datalayout = "e-m:e-p270:32:32-p271:32:32-p272:64:64-i64:64-i128:128-f80:128-n8:16:32:64-S128"
target triple = "x86_64-unknown-linux-gnu"

%"class.icu_75::TransliterationRule" = type { ptr, ptr, ptr, ptr, ptr, %"class.icu_75::UnicodeString", ptr, i32, i32, i32, i8, ptr }
%"class.icu_75::UnicodeString" = type { %"class.icu_75::Replaceable", %"union.icu_75::UnicodeString::StackBufferOrFields" }
%"class.icu_75::Replaceable" = type { %"class.icu_75::UObject" }
%"class.icu_75::UObject" = type { ptr }
%"union.icu_75::UnicodeString::StackBufferOrFields" = type { %struct.anon.0, [32 x i8] }
%struct.anon.0 = type { i16, i32, i32, ptr }

; Function Attrs: mustprogress uwtable
define void @_ZNK6icu_7519TransliterationRule14addSourceSetToERNS_10UnicodeSetE(ptr noundef nonnull align 8 dereferenceable(136) %this, ptr noundef nonnull align 8 dereferenceable(200) %toUnionTo) #1 align 2 {
entry:
  %this.addr = alloca ptr, align 8
  %toUnionTo.addr = alloca ptr, align 8
  %limit = alloca i32, align 4
  %i = alloca i32, align 4
  %ch = alloca i32, align 4
  %matcher = alloca ptr, align 8
  store ptr %this, ptr %this.addr, align 8
  store ptr %toUnionTo, ptr %toUnionTo.addr, align 8
  %this1 = load ptr, ptr %this.addr, align 8
  %anteContextLength = getelementptr inbounds %"class.icu_75::TransliterationRule", ptr %this1, i32 0, i32 8
  %0 = load i32, ptr %anteContextLength, align 4
  %keyLength = getelementptr inbounds %"class.icu_75::TransliterationRule", ptr %this1, i32 0, i32 9
  %1 = load i32, ptr %keyLength, align 8
  %add = add nsw i32 %0, %1
  store i32 %add, ptr %limit, align 4
  %anteContextLength2 = getelementptr inbounds %"class.icu_75::TransliterationRule", ptr %this1, i32 0, i32 8
  %2 = load i32, ptr %anteContextLength2, align 4
  store i32 %2, ptr %i, align 4
  br label %for.cond

for.cond:                                         ; preds = %if.end, %entry
  %3 = load i32, ptr %i, align 4
  %4 = load i32, ptr %limit, align 4
  %cmp = icmp slt i32 %3, %4
  br i1 %cmp, label %for.body, label %for.end

for.body:                                         ; preds = %for.cond
  %pattern = getelementptr inbounds %"class.icu_75::TransliterationRule", ptr %this1, i32 0, i32 5
  %5 = load i32, ptr %i, align 4
  %call = call noundef i32 @_ZNK6icu_7513UnicodeString8char32AtEi(ptr noundef nonnull align 8 dereferenceable(64) %pattern, i32 noundef %5)
  store i32 %call, ptr %ch, align 4
  %6 = load i32, ptr %ch, align 4
  %cmp3 = icmp ule i32 %6, 65535
  %cond = select i1 %cmp3, i32 1, i32 2
  %7 = load i32, ptr %i, align 4
  %add4 = add nsw i32 %7, %cond
  store i32 %add4, ptr %i, align 4
  %data = getelementptr inbounds %"class.icu_75::TransliterationRule", ptr %this1, i32 0, i32 11
  %8 = load ptr, ptr %data, align 8
  %9 = load i32, ptr %ch, align 4
  %call5 = call noundef ptr @_ZNK6icu_7523TransliterationRuleData13lookupMatcherEi(ptr noundef nonnull align 8 dereferenceable(1168) %8, i32 noundef %9)
  store ptr %call5, ptr %matcher, align 8
  %10 = load ptr, ptr %matcher, align 8
  %cmp6 = icmp eq ptr %10, null
  br i1 %cmp6, label %if.then, label %if.else

if.then:                                          ; preds = %for.body
  %11 = load ptr, ptr %toUnionTo.addr, align 8
  %12 = load i32, ptr %ch, align 4
  %call7 = call noundef nonnull align 8 dereferenceable(200) ptr @_ZN6icu_7510UnicodeSet3addEi(ptr noundef nonnull align 8 dereferenceable(200) %11, i32 noundef %12)
  br label %if.end

if.else:                                          ; preds = %for.body
  %13 = load ptr, ptr %matcher, align 8
  %14 = load ptr, ptr %toUnionTo.addr, align 8
  %vtable = load ptr, ptr %13, align 8
  %vfn = getelementptr inbounds ptr, ptr %vtable, i64 5
  %15 = load ptr, ptr %vfn, align 8
  call void %15(ptr noundef nonnull align 8 dereferenceable(8) %13, ptr noundef nonnull align 8 dereferenceable(200) %14)
  br label %if.end

if.end:                                           ; preds = %if.else, %if.then
  br label %for.cond, !llvm.loop !7

for.end:                                          ; preds = %for.cond
  ret void
}