; Function Attrs: mustprogress uwtable
define void @_ZNK6icu_7519TransliterationRule14addSourceSetToERNS_10UnicodeSetE(ptr noundef nonnull align 8 dereferenceable(136) %this, ptr noundef nonnull align 8 dereferenceable(200) %toUnionTo) local_unnamed_addr #1 align 2 {
entry:
  %anteContextLength = getelementptr inbounds i8, ptr %this, i64 116
  %0 = load i32, ptr %anteContextLength, align 4
  %keyLength = getelementptr inbounds i8, ptr %this, i64 120
  %1 = load i32, ptr %keyLength, align 8
  %add = add nsw i32 %1, %0
  %cmp7 = icmp sgt i32 %1, 0
  br i1 %cmp7, label %for.body.lr.ph, label %for.end

for.body.lr.ph:                                   ; preds = %entry
  %pattern = getelementptr inbounds i8, ptr %this, i64 40
  %data = getelementptr inbounds i8, ptr %this, i64 128
  br label %for.body

for.body:                                         ; preds = %for.body.lr.ph, %if.end
  %i.08 = phi i32 [ %0, %for.body.lr.ph ], [ %add4, %if.end ]
  %call = tail call noundef i32 @_ZNK6icu_7513UnicodeString8char32AtEi(ptr noundef nonnull align 8 dereferenceable(64) %pattern, i32 noundef %i.08)
  %cmp3 = icmp ult i32 %call, 65536
  %cond = select i1 %cmp3, i32 1, i32 2
  %add4 = add nsw i32 %cond, %i.08
  %2 = load ptr, ptr %data, align 8
  %call5 = tail call noundef ptr @_ZNK6icu_7523TransliterationRuleData13lookupMatcherEi(ptr noundef nonnull align 8 dereferenceable(1168) %2, i32 noundef %call)
  %cmp6 = icmp eq ptr %call5, null
  br i1 %cmp6, label %if.then, label %if.else

if.then:                                          ; preds = %for.body
  %call7 = tail call noundef nonnull align 8 dereferenceable(200) ptr @_ZN6icu_7510UnicodeSet3addEi(ptr noundef nonnull align 8 dereferenceable(200) %toUnionTo, i32 noundef %call)
  br label %if.end

if.else:                                          ; preds = %for.body
  %vtable = load ptr, ptr %call5, align 8
  %vfn = getelementptr inbounds i8, ptr %vtable, i64 40
  %3 = load ptr, ptr %vfn, align 8
  tail call void %3(ptr noundef nonnull align 8 dereferenceable(8) %call5, ptr noundef nonnull align 8 dereferenceable(200) %toUnionTo)
  br label %if.end

if.end:                                           ; preds = %if.else, %if.then
  %cmp = icmp slt i32 %add4, %add
  br i1 %cmp, label %for.body, label %for.end, !llvm.loop !7

for.end:                                          ; preds = %if.end, %entry
  ret void
}